target datalayout = "e-m:e-p270:32:32-p271:32:32-p272:64:64-i64:64-i128:128-f80:128-n8:16:32:64-S128"
target triple = "x86_64-pc-linux-gnu"

%"class.base::BasicStringPiece.0" = type { ptr, i64 }
%"struct.__gnu_cxx::__ops::_Iter_equals_val.11" = type { ptr }

; Function Attrs: mustprogress nounwind uwtable
define linkonce_odr noundef zeroext i1 @_ZN9__gnu_cxx5__ops16_Iter_equals_valIKtEclIPS2_EEbT_(ptr noundef nonnull align 8 dereferenceable(8) %0, ptr noundef %1) #0 comdat align 2 {
  %3 = alloca ptr, align 8
  %4 = alloca ptr, align 8
  store ptr %0, ptr %3, align 8, !tbaa !135
  store ptr %1, ptr %4, align 8, !tbaa !49
  %5 = load ptr, ptr %3, align 8
  %6 = load ptr, ptr %4, align 8, !tbaa !49
  %7 = load i16, ptr %6, align 2, !tbaa !60
  %8 = zext i16 %7 to i32
  %9 = getelementptr inbounds nuw %"struct.__gnu_cxx::__ops::_Iter_equals_val.11", ptr %5, i32 0, i32 0
  %10 = load ptr, ptr %9, align 8, !tbaa !137
  %11 = load i16, ptr %10, align 2, !tbaa !60
  %12 = zext i16 %11 to i32
  %13 = icmp eq i32 %8, %12
  ret i1 %13
}

; Function Attrs: mustprogress uwtable
define linkonce_odr noundef ptr @_ZSt9__find_ifIPKtN9__gnu_cxx5__ops16_Iter_equals_valIS0_EEET_S6_S6_T0_St26random_access_iterator_tag(ptr noundef %0, ptr noundef %1, ptr %2) #1 comdat {
  %4 = alloca ptr, align 8
  %5 = alloca %"struct.__gnu_cxx::__ops::_Iter_equals_val.11", align 8
  %6 = alloca ptr, align 8
  %7 = alloca ptr, align 8
  %8 = alloca i64, align 8
  %9 = alloca i32, align 4
  %10 = getelementptr inbounds nuw %"struct.__gnu_cxx::__ops::_Iter_equals_val.11", ptr %5, i32 0, i32 0
  store ptr %2, ptr %10, align 8
  store ptr %0, ptr %6, align 8, !tbaa !49
  store ptr %1, ptr %7, align 8, !tbaa !49
  call void @llvm.lifetime.start.p0(i64 8, ptr %8) #14
  %11 = load ptr, ptr %7, align 8, !tbaa !49
  %12 = load ptr, ptr %6, align 8, !tbaa !49
  %13 = ptrtoint ptr %11 to i64
  %14 = ptrtoint ptr %12 to i64
  %15 = sub i64 %13, %14
  %16 = sdiv exact i64 %15, 2
  %17 = ashr i64 %16, 2
  store i64 %17, ptr %8, align 8, !tbaa !19
  br label %18

18:                                               ; preds = %50, %3
  %19 = load i64, ptr %8, align 8, !tbaa !19
  %20 = icmp sgt i64 %19, 0
  br i1 %20, label %21, label %53

21:                                               ; preds = %18
  %22 = load ptr, ptr %6, align 8, !tbaa !49
  %23 = call noundef zeroext i1 @_ZN9__gnu_cxx5__ops16_Iter_equals_valIKtEclIPS2_EEbT_(ptr noundef nonnull align 8 dereferenceable(8) %5, ptr noundef %22)
  br i1 %23, label %24, label %26

24:                                               ; preds = %21
  %25 = load ptr, ptr %6, align 8, !tbaa !49
  store ptr %25, ptr %4, align 8
  store i32 1, ptr %9, align 4
  br label %87

26:                                               ; preds = %21
  %27 = load ptr, ptr %6, align 8, !tbaa !49
  %28 = getelementptr inbounds nuw i16, ptr %27, i32 1
  store ptr %28, ptr %6, align 8, !tbaa !49
  %29 = load ptr, ptr %6, align 8, !tbaa !49
  %30 = call noundef zeroext i1 @_ZN9__gnu_cxx5__ops16_Iter_equals_valIKtEclIPS2_EEbT_(ptr noundef nonnull align 8 dereferenceable(8) %5, ptr noundef %29)
  br i1 %30, label %31, label %33

31:                                               ; preds = %26
  %32 = load ptr, ptr %6, align 8, !tbaa !49
  store ptr %32, ptr %4, align 8
  store i32 1, ptr %9, align 4
  br label %87

33:                                               ; preds = %26
  %34 = load ptr, ptr %6, align 8, !tbaa !49
  %35 = getelementptr inbounds nuw i16, ptr %34, i32 1
  store ptr %35, ptr %6, align 8, !tbaa !49
  %36 = load ptr, ptr %6, align 8, !tbaa !49
  %37 = call noundef zeroext i1 @_ZN9__gnu_cxx5__ops16_Iter_equals_valIKtEclIPS2_EEbT_(ptr noundef nonnull align 8 dereferenceable(8) %5, ptr noundef %36)
  br i1 %37, label %38, label %40

38:                                               ; preds = %33
  %39 = load ptr, ptr %6, align 8, !tbaa !49
  store ptr %39, ptr %4, align 8
  store i32 1, ptr %9, align 4
  br label %87

40:                                               ; preds = %33
  %41 = load ptr, ptr %6, align 8, !tbaa !49
  %42 = getelementptr inbounds nuw i16, ptr %41, i32 1
  store ptr %42, ptr %6, align 8, !tbaa !49
  %43 = load ptr, ptr %6, align 8, !tbaa !49
  %44 = call noundef zeroext i1 @_ZN9__gnu_cxx5__ops16_Iter_equals_valIKtEclIPS2_EEbT_(ptr noundef nonnull align 8 dereferenceable(8) %5, ptr noundef %43)
  br i1 %44, label %45, label %47

45:                                               ; preds = %40
  %46 = load ptr, ptr %6, align 8, !tbaa !49
  store ptr %46, ptr %4, align 8
  store i32 1, ptr %9, align 4
  br label %87

47:                                               ; preds = %40
  %48 = load ptr, ptr %6, align 8, !tbaa !49
  %49 = getelementptr inbounds nuw i16, ptr %48, i32 1
  store ptr %49, ptr %6, align 8, !tbaa !49
  br label %50

50:                                               ; preds = %47
  %51 = load i64, ptr %8, align 8, !tbaa !19
  %52 = add nsw i64 %51, -1
  store i64 %52, ptr %8, align 8, !tbaa !19
  br label %18, !llvm.loop !134

53:                                               ; preds = %18
  %54 = load ptr, ptr %7, align 8, !tbaa !49
  %55 = load ptr, ptr %6, align 8, !tbaa !49
  %56 = ptrtoint ptr %54 to i64
  %57 = ptrtoint ptr %55 to i64
  %58 = sub i64 %56, %57
  %59 = sdiv exact i64 %58, 2
  switch i64 %59, label %85 [
    i64 3, label %60
    i64 2, label %68
    i64 1, label %76
    i64 0, label %84
  ]

60:                                               ; preds = %53
  %61 = load ptr, ptr %6, align 8, !tbaa !49
  %62 = call noundef zeroext i1 @_ZN9__gnu_cxx5__ops16_Iter_equals_valIKtEclIPS2_EEbT_(ptr noundef nonnull align 8 dereferenceable(8) %5, ptr noundef %61)
  br i1 %62, label %63, label %65

63:                                               ; preds = %60
  %64 = load ptr, ptr %6, align 8, !tbaa !49
  store ptr %64, ptr %4, align 8
  store i32 1, ptr %9, align 4
  br label %87

65:                                               ; preds = %60
  %66 = load ptr, ptr %6, align 8, !tbaa !49
  %67 = getelementptr inbounds nuw i16, ptr %66, i32 1
  store ptr %67, ptr %6, align 8, !tbaa !49
  br label %68

68:                                               ; preds = %53, %65
  %69 = load ptr, ptr %6, align 8, !tbaa !49
  %70 = call noundef zeroext i1 @_ZN9__gnu_cxx5__ops16_Iter_equals_valIKtEclIPS2_EEbT_(ptr noundef nonnull align 8 dereferenceable(8) %5, ptr noundef %69)
  br i1 %70, label %71, label %73

71:                                               ; preds = %68
  %72 = load ptr, ptr %6, align 8, !tbaa !49
  store ptr %72, ptr %4, align 8
  store i32 1, ptr %9, align 4
  br label %87

73:                                               ; preds = %68
  %74 = load ptr, ptr %6, align 8, !tbaa !49
  %75 = getelementptr inbounds nuw i16, ptr %74, i32 1
  store ptr %75, ptr %6, align 8, !tbaa !49
  br label %76

76:                                               ; preds = %53, %73
  %77 = load ptr, ptr %6, align 8, !tbaa !49
  %78 = call noundef zeroext i1 @_ZN9__gnu_cxx5__ops16_Iter_equals_valIKtEclIPS2_EEbT_(ptr noundef nonnull align 8 dereferenceable(8) %5, ptr noundef %77)
  br i1 %78, label %79, label %81

79:                                               ; preds = %76
  %80 = load ptr, ptr %6, align 8, !tbaa !49
  store ptr %80, ptr %4, align 8
  store i32 1, ptr %9, align 4
  br label %87

81:                                               ; preds = %76
  %82 = load ptr, ptr %6, align 8, !tbaa !49
  %83 = getelementptr inbounds nuw i16, ptr %82, i32 1
  store ptr %83, ptr %6, align 8, !tbaa !49
  br label %84

84:                                               ; preds = %53, %81
  br label %85

85:                                               ; preds = %53, %84
  %86 = load ptr, ptr %7, align 8, !tbaa !49
  store ptr %86, ptr %4, align 8
  store i32 1, ptr %9, align 4
  br label %87

87:                                               ; preds = %85, %79, %71, %63, %45, %38, %31, %24
  call void @llvm.lifetime.end.p0(i64 8, ptr %8) #14
  %88 = load ptr, ptr %4, align 8
  ret ptr %88
}

; Function Attrs: inlinehint mustprogress nounwind uwtable
define linkonce_odr void @_ZSt19__iterator_categoryIPKtENSt15iterator_traitsIT_E17iterator_categoryERKS3_(ptr noundef nonnull align 8 dereferenceable(8) %0) #7 comdat {
  %2 = alloca ptr, align 8
  store ptr %0, ptr %2, align 8, !tbaa !111
  ret void
}

; Function Attrs: mustprogress nounwind uwtable
define linkonce_odr void @_ZN9__gnu_cxx5__ops16_Iter_equals_valIKtEC2ERS2_(ptr noundef nonnull align 8 dereferenceable(8) %0, ptr noundef nonnull align 2 dereferenceable(2) %1) unnamed_addr #0 comdat align 2 {
  %3 = alloca ptr, align 8
  %4 = alloca ptr, align 8
  store ptr %0, ptr %3, align 8, !tbaa !135
  store ptr %1, ptr %4, align 8, !tbaa !49
  %5 = load ptr, ptr %3, align 8
  %6 = getelementptr inbounds nuw %"struct.__gnu_cxx::__ops::_Iter_equals_val.11", ptr %5, i32 0, i32 0
  %7 = load ptr, ptr %4, align 8, !tbaa !49
  store ptr %7, ptr %6, align 8, !tbaa !49
  ret void
}

; Function Attrs: inlinehint mustprogress uwtable
define linkonce_odr noundef ptr @_ZSt9__find_ifIPKtN9__gnu_cxx5__ops16_Iter_equals_valIS0_EEET_S6_S6_T0_(ptr noundef %0, ptr noundef %1, ptr %2) #2 comdat {
  %4 = alloca %"struct.__gnu_cxx::__ops::_Iter_equals_val.11", align 8
  %5 = alloca ptr, align 8
  %6 = alloca ptr, align 8
  %7 = alloca %"struct.__gnu_cxx::__ops::_Iter_equals_val.11", align 8
  %8 = getelementptr inbounds nuw %"struct.__gnu_cxx::__ops::_Iter_equals_val.11", ptr %4, i32 0, i32 0
  store ptr %2, ptr %8, align 8
  store ptr %0, ptr %5, align 8, !tbaa !49
  store ptr %1, ptr %6, align 8, !tbaa !49
  %9 = load ptr, ptr %5, align 8, !tbaa !49
  %10 = load ptr, ptr %6, align 8, !tbaa !49
  call void @llvm.memcpy.p0.p0.i64(ptr align 8 %7, ptr align 8 %4, i64 8, i1 false), !tbaa.struct !57
  call void @_ZSt19__iterator_categoryIPKtENSt15iterator_traitsIT_E17iterator_categoryERKS3_(ptr noundef nonnull align 8 dereferenceable(8) %5)
  %11 = getelementptr inbounds nuw %"struct.__gnu_cxx::__ops::_Iter_equals_val.11", ptr %7, i32 0, i32 0
  %12 = load ptr, ptr %11, align 8
  %13 = call noundef ptr @_ZSt9__find_ifIPKtN9__gnu_cxx5__ops16_Iter_equals_valIS0_EEET_S6_S6_T0_St26random_access_iterator_tag(ptr noundef %9, ptr noundef %10, ptr %12)
  ret ptr %13
}

; Function Attrs: inlinehint mustprogress uwtable
define linkonce_odr ptr @_ZN9__gnu_cxx5__ops17__iter_equals_valIKtEENS0_16_Iter_equals_valIT_EERS4_(ptr noundef nonnull align 2 dereferenceable(2) %0) #2 comdat {
  %2 = alloca %"struct.__gnu_cxx::__ops::_Iter_equals_val.11", align 8
  %3 = alloca ptr, align 8
  store ptr %0, ptr %3, align 8, !tbaa !49
  %4 = load ptr, ptr %3, align 8, !tbaa !49
  call void @_ZN9__gnu_cxx5__ops16_Iter_equals_valIKtEC2ERS2_(ptr noundef nonnull align 8 dereferenceable(8) %2, ptr noundef nonnull align 2 dereferenceable(2) %4)
  %5 = getelementptr inbounds nuw %"struct.__gnu_cxx::__ops::_Iter_equals_val.11", ptr %2, i32 0, i32 0
  %6 = load ptr, ptr %5, align 8
  ret ptr %6
}

; Function Attrs: inlinehint mustprogress uwtable
define linkonce_odr noundef ptr @_ZSt4findIPKttET_S2_S2_RKT0_(ptr noundef %0, ptr noundef %1, ptr noundef nonnull align 2 dereferenceable(2) %2) #2 comdat {
  %4 = alloca ptr, align 8
  %5 = alloca ptr, align 8
  %6 = alloca ptr, align 8
  %7 = alloca %"struct.__gnu_cxx::__ops::_Iter_equals_val.11", align 8
  store ptr %0, ptr %4, align 8, !tbaa !49
  store ptr %1, ptr %5, align 8, !tbaa !49
  store ptr %2, ptr %6, align 8, !tbaa !49
  %8 = load ptr, ptr %4, align 8, !tbaa !49
  %9 = load ptr, ptr %5, align 8, !tbaa !49
  %10 = load ptr, ptr %6, align 8, !tbaa !49
  %11 = call ptr @_ZN9__gnu_cxx5__ops17__iter_equals_valIKtEENS0_16_Iter_equals_valIT_EERS4_(ptr noundef nonnull align 2 dereferenceable(2) %10)
  %12 = getelementptr inbounds nuw %"struct.__gnu_cxx::__ops::_Iter_equals_val.11", ptr %7, i32 0, i32 0
  store ptr %11, ptr %12, align 8
  %13 = getelementptr inbounds nuw %"struct.__gnu_cxx::__ops::_Iter_equals_val.11", ptr %7, i32 0, i32 0
  %14 = load ptr, ptr %13, align 8
  %15 = call noundef ptr @_ZSt9__find_ifIPKtN9__gnu_cxx5__ops16_Iter_equals_valIS0_EEET_S6_S6_T0_(ptr noundef %8, ptr noundef %9, ptr %14)
  ret ptr %15
}

; Function Attrs: mustprogress nounwind uwtable
define weak_odr noundef ptr @_ZNK4base16BasicStringPieceINSt7__cxx1112basic_stringItNS_20string16_char_traitsESaItEEEE3endEv(ptr noundef nonnull align 8 dereferenceable(16) %0) #0 comdat align 2 {
  %2 = alloca ptr, align 8
  store ptr %0, ptr %2, align 8, !tbaa !43
  %3 = load ptr, ptr %2, align 8
  %4 = getelementptr inbounds nuw %"class.base::BasicStringPiece.0", ptr %3, i32 0, i32 0
  %5 = load ptr, ptr %4, align 8, !tbaa !45
  %6 = getelementptr inbounds nuw %"class.base::BasicStringPiece.0", ptr %3, i32 0, i32 1
  %7 = load i64, ptr %6, align 8, !tbaa !48
  %8 = getelementptr inbounds nuw i16, ptr %5, i64 %7
  ret ptr %8
}

; Function Attrs: mustprogress nounwind uwtable
define weak_odr noundef ptr @_ZNK4base16BasicStringPieceINSt7__cxx1112basic_stringItNS_20string16_char_traitsESaItEEEE5beginEv(ptr noundef nonnull align 8 dereferenceable(16) %0) #0 comdat align 2 {
  %2 = alloca ptr, align 8
  store ptr %0, ptr %2, align 8, !tbaa !43
  %3 = load ptr, ptr %2, align 8
  %4 = getelementptr inbounds nuw %"class.base::BasicStringPiece.0", ptr %3, i32 0, i32 0
  %5 = load ptr, ptr %4, align 8, !tbaa !45
  ret ptr %5
}

; Function Attrs: mustprogress nounwind uwtable
define weak_odr noundef i64 @_ZNK4base16BasicStringPieceINSt7__cxx1112basic_stringItNS_20string16_char_traitsESaItEEEE4sizeEv(ptr noundef nonnull align 8 dereferenceable(16) %0) #0 comdat align 2 {
  %2 = alloca ptr, align 8
  store ptr %0, ptr %2, align 8, !tbaa !43
  %3 = load ptr, ptr %2, align 8
  %4 = getelementptr inbounds nuw %"class.base::BasicStringPiece.0", ptr %3, i32 0, i32 1
  %5 = load i64, ptr %4, align 8, !tbaa !48
  ret i64 %5
}

; Function Attrs: mustprogress uwtable
define linkonce_odr noundef i64 @_ZN4base8internal5findTINSt7__cxx1112basic_stringItNS_20string16_char_traitsESaItEEEEEmRKNS_16BasicStringPieceIT_EENS8_10value_typeEm(ptr noundef nonnull align 8 dereferenceable(16) %0, i16 noundef zeroext %1, i64 noundef %2) #1 comdat {
  %4 = alloca i64, align 8
  %5 = alloca ptr, align 8
  %6 = alloca i16, align 2
  %7 = alloca i64, align 8
  %8 = alloca ptr, align 8
  store ptr %0, ptr %5, align 8, !tbaa !43
  store i16 %1, ptr %6, align 2, !tbaa !60
  store i64 %2, ptr %7, align 8, !tbaa !19
  %9 = load i64, ptr %7, align 8, !tbaa !19
  %10 = load ptr, ptr %5, align 8, !tbaa !43
  %11 = call noundef i64 @_ZNK4base16BasicStringPieceINSt7__cxx1112basic_stringItNS_20string16_char_traitsESaItEEEE4sizeEv(ptr noundef nonnull align 8 dereferenceable(16) %10)
  %12 = icmp uge i64 %9, %11
  br i1 %12, label %13, label %14

13:                                               ; preds = %3
  store i64 -1, ptr %4, align 8
  br label %37

14:                                               ; preds = %3
  call void @llvm.lifetime.start.p0(i64 8, ptr %8) #14
  %15 = load ptr, ptr %5, align 8, !tbaa !43
  %16 = call noundef ptr @_ZNK4base16BasicStringPieceINSt7__cxx1112basic_stringItNS_20string16_char_traitsESaItEEEE5beginEv(ptr noundef nonnull align 8 dereferenceable(16) %15)
  %17 = load i64, ptr %7, align 8, !tbaa !19
  %18 = getelementptr inbounds nuw i16, ptr %16, i64 %17
  %19 = load ptr, ptr %5, align 8, !tbaa !43
  %20 = call noundef ptr @_ZNK4base16BasicStringPieceINSt7__cxx1112basic_stringItNS_20string16_char_traitsESaItEEEE3endEv(ptr noundef nonnull align 8 dereferenceable(16) %19)
  %21 = call noundef ptr @_ZSt4findIPKttET_S2_S2_RKT0_(ptr noundef %18, ptr noundef %20, ptr noundef nonnull align 2 dereferenceable(2) %6)
  store ptr %21, ptr %8, align 8, !tbaa !49
  %22 = load ptr, ptr %8, align 8, !tbaa !49
  %23 = load ptr, ptr %5, align 8, !tbaa !43
  %24 = call noundef ptr @_ZNK4base16BasicStringPieceINSt7__cxx1112basic_stringItNS_20string16_char_traitsESaItEEEE3endEv(ptr noundef nonnull align 8 dereferenceable(16) %23)
  %25 = icmp ne ptr %22, %24
  br i1 %25, label %26, label %34

26:                                               ; preds = %14
  %27 = load ptr, ptr %8, align 8, !tbaa !49
  %28 = load ptr, ptr %5, align 8, !tbaa !43
  %29 = call noundef ptr @_ZNK4base16BasicStringPieceINSt7__cxx1112basic_stringItNS_20string16_char_traitsESaItEEEE5beginEv(ptr noundef nonnull align 8 dereferenceable(16) %28)
  %30 = ptrtoint ptr %27 to i64
  %31 = ptrtoint ptr %29 to i64
  %32 = sub i64 %30, %31
  %33 = sdiv exact i64 %32, 2
  br label %35

34:                                               ; preds = %14
  br label %35

35:                                               ; preds = %34, %26
  %36 = phi i64 [ %33, %26 ], [ -1, %34 ]
  store i64 %36, ptr %4, align 8
  call void @llvm.lifetime.end.p0(i64 8, ptr %8) #14
  br label %37

37:                                               ; preds = %35, %13
  %38 = load i64, ptr %4, align 8
  ret i64 %38
}

; Function Attrs: mustprogress uwtable
define noundef i64 @_ZN4base8internal4findERKNS_16BasicStringPieceINSt7__cxx1112basic_stringItNS_20string16_char_traitsESaItEEEEEtm(ptr noundef nonnull align 8 dereferenceable(16) %0, i16 noundef zeroext %1, i64 noundef %2) #1 {
  %4 = alloca ptr, align 8
  %5 = alloca i16, align 2
  %6 = alloca i64, align 8
  store ptr %0, ptr %4, align 8, !tbaa !43
  store i16 %1, ptr %5, align 2, !tbaa !60
  store i64 %2, ptr %6, align 8, !tbaa !19
  %7 = load ptr, ptr %4, align 8, !tbaa !43
  %8 = load i16, ptr %5, align 2, !tbaa !60
  %9 = load i64, ptr %6, align 8, !tbaa !19
  %10 = call noundef i64 @_ZN4base8internal5findTINSt7__cxx1112basic_stringItNS_20string16_char_traitsESaItEEEEEmRKNS_16BasicStringPieceIT_EENS8_10value_typeEm(ptr noundef nonnull align 8 dereferenceable(16) %7, i16 noundef zeroext %8, i64 noundef %9)
  ret i64 %10
}