; Function Attrs: mustprogress nofree norecurse nosync nounwind willreturn memory(read, inaccessiblemem: none) uwtable
define noundef range(i64 -4611686018427387904, 4611686018427387904) i64 @_ZN4base8internal4findERKNS_16BasicStringPieceINSt7__cxx1112basic_stringItNS_20string16_char_traitsESaItEEEEEtm(ptr noundef nonnull readonly align 8 captures(none) dereferenceable(16) %0, i16 noundef zeroext %1, i64 noundef %2) local_unnamed_addr #5 {
  %4 = getelementptr inbounds nuw i8, ptr %0, i64 8
  %5 = load i64, ptr %4, align 8, !tbaa !38
  %.not.i = icmp ult i64 %2, %5
  br i1 %.not.i, label %6, label %_ZN4base8internal5findTINSt7__cxx1112basic_stringItNS_20string16_char_traitsESaItEEEEEmRKNS_16BasicStringPieceIT_EENS8_10value_typeEm.exit

6:                                                ; preds = %3
  %7 = load ptr, ptr %0, align 8, !tbaa !35
  %.idx17.i = shl nuw nsw i64 %2, 1
  %8 = getelementptr inbounds nuw i8, ptr %7, i64 %.idx17.i
  %.idx.i = shl nuw nsw i64 %5, 1
  %9 = getelementptr inbounds nuw i8, ptr %7, i64 %.idx.i
  %10 = ptrtoint ptr %9 to i64
  %gepdiff.i = sub nsw i64 %.idx.i, %.idx17.i
  %11 = ashr i64 %gepdiff.i, 3
  %12 = icmp sgt i64 %11, 0
  br i1 %12, label %.lr.ph.i.i.i.i, label %._crit_edge.i.i.i.i

.lr.ph.i.i.i.i:                                   ; preds = %6
  %13 = and i64 %gepdiff.i, -8
  %scevgep.i.i.i.i = getelementptr i8, ptr %8, i64 %13
  br label %14

14:                                               ; preds = %29, %.lr.ph.i.i.i.i
  %.047.i.i.i.i = phi i64 [ %11, %.lr.ph.i.i.i.i ], [ %31, %29 ]
  %.02946.i.i.i.i = phi ptr [ %8, %.lr.ph.i.i.i.i ], [ %30, %29 ]
  %15 = load i16, ptr %.02946.i.i.i.i, align 2, !tbaa !44
  %16 = icmp eq i16 %15, %1
  br i1 %16, label %_ZSt4findIPKttET_S2_S2_RKT0_.exit.i, label %17

17:                                               ; preds = %14
  %18 = getelementptr inbounds nuw i8, ptr %.02946.i.i.i.i, i64 2
  %19 = load i16, ptr %18, align 2, !tbaa !44
  %20 = icmp eq i16 %19, %1
  br i1 %20, label %_ZSt4findIPKttET_S2_S2_RKT0_.exit.i.loopexit.split.loop.exit, label %21

21:                                               ; preds = %17
  %22 = getelementptr inbounds nuw i8, ptr %.02946.i.i.i.i, i64 4
  %23 = load i16, ptr %22, align 2, !tbaa !44
  %24 = icmp eq i16 %23, %1
  br i1 %24, label %_ZSt4findIPKttET_S2_S2_RKT0_.exit.i.loopexit.split.loop.exit14, label %25

25:                                               ; preds = %21
  %26 = getelementptr inbounds nuw i8, ptr %.02946.i.i.i.i, i64 6
  %27 = load i16, ptr %26, align 2, !tbaa !44
  %28 = icmp eq i16 %27, %1
  br i1 %28, label %_ZSt4findIPKttET_S2_S2_RKT0_.exit.i.loopexit.split.loop.exit16, label %29

29:                                               ; preds = %25
  %30 = getelementptr inbounds nuw i8, ptr %.02946.i.i.i.i, i64 8
  %31 = add nsw i64 %.047.i.i.i.i, -1
  %32 = icmp sgt i64 %.047.i.i.i.i, 1
  br i1 %32, label %14, label %._crit_edge.loopexit.i.i.i.i, !llvm.loop !49

._crit_edge.loopexit.i.i.i.i:                     ; preds = %29
  %.pre54.i.i.i.i = ptrtoint ptr %scevgep.i.i.i.i to i64
  %.pre55.i.i.i.i = sub i64 %10, %.pre54.i.i.i.i
  br label %._crit_edge.i.i.i.i

._crit_edge.i.i.i.i:                              ; preds = %._crit_edge.loopexit.i.i.i.i, %6
  %.pre-phi56.i.i.i.i = phi i64 [ %.pre55.i.i.i.i, %._crit_edge.loopexit.i.i.i.i ], [ %gepdiff.i, %6 ]
  %.029.lcssa.i.i.i.i = phi ptr [ %scevgep.i.i.i.i, %._crit_edge.loopexit.i.i.i.i ], [ %8, %6 ]
  %33 = ashr exact i64 %.pre-phi56.i.i.i.i, 1
  switch i64 %33, label %_ZN4base8internal5findTINSt7__cxx1112basic_stringItNS_20string16_char_traitsESaItEEEEEmRKNS_16BasicStringPieceIT_EENS8_10value_typeEm.exit [
    i64 3, label %34
    i64 2, label %._crit_edge._crit_edge.i.i.i.i
    i64 1, label %._crit_edge._crit_edge52.i.i.i.i
  ]

34:                                               ; preds = %._crit_edge.i.i.i.i
  %35 = load i16, ptr %.029.lcssa.i.i.i.i, align 2, !tbaa !44
  %36 = icmp eq i16 %35, %1
  br i1 %36, label %_ZSt4findIPKttET_S2_S2_RKT0_.exit.i, label %37

37:                                               ; preds = %34
  %38 = getelementptr inbounds nuw i8, ptr %.029.lcssa.i.i.i.i, i64 2
  br label %._crit_edge._crit_edge.i.i.i.i

._crit_edge._crit_edge.i.i.i.i:                   ; preds = %37, %._crit_edge.i.i.i.i
  %.1.i.i.i.i = phi ptr [ %38, %37 ], [ %.029.lcssa.i.i.i.i, %._crit_edge.i.i.i.i ]
  %39 = load i16, ptr %.1.i.i.i.i, align 2, !tbaa !44
  %40 = icmp eq i16 %39, %1
  br i1 %40, label %_ZSt4findIPKttET_S2_S2_RKT0_.exit.i, label %41

41:                                               ; preds = %._crit_edge._crit_edge.i.i.i.i
  %42 = getelementptr inbounds nuw i8, ptr %.1.i.i.i.i, i64 2
  br label %._crit_edge._crit_edge52.i.i.i.i

._crit_edge._crit_edge52.i.i.i.i:                 ; preds = %41, %._crit_edge.i.i.i.i
  %.2.i.i.i.i = phi ptr [ %42, %41 ], [ %.029.lcssa.i.i.i.i, %._crit_edge.i.i.i.i ]
  %43 = load i16, ptr %.2.i.i.i.i, align 2, !tbaa !44
  %44 = icmp eq i16 %43, %1
  br i1 %44, label %_ZSt4findIPKttET_S2_S2_RKT0_.exit.i, label %_ZN4base8internal5findTINSt7__cxx1112basic_stringItNS_20string16_char_traitsESaItEEEEEmRKNS_16BasicStringPieceIT_EENS8_10value_typeEm.exit

_ZSt4findIPKttET_S2_S2_RKT0_.exit.i.loopexit.split.loop.exit: ; preds = %17
  %45 = getelementptr inbounds nuw i8, ptr %.02946.i.i.i.i, i64 2
  br label %_ZSt4findIPKttET_S2_S2_RKT0_.exit.i

_ZSt4findIPKttET_S2_S2_RKT0_.exit.i.loopexit.split.loop.exit14: ; preds = %21
  %46 = getelementptr inbounds nuw i8, ptr %.02946.i.i.i.i, i64 4
  br label %_ZSt4findIPKttET_S2_S2_RKT0_.exit.i

_ZSt4findIPKttET_S2_S2_RKT0_.exit.i.loopexit.split.loop.exit16: ; preds = %25
  %47 = getelementptr inbounds nuw i8, ptr %.02946.i.i.i.i, i64 6
  br label %_ZSt4findIPKttET_S2_S2_RKT0_.exit.i

_ZSt4findIPKttET_S2_S2_RKT0_.exit.i:              ; preds = %14, %_ZSt4findIPKttET_S2_S2_RKT0_.exit.i.loopexit.split.loop.exit, %_ZSt4findIPKttET_S2_S2_RKT0_.exit.i.loopexit.split.loop.exit14, %_ZSt4findIPKttET_S2_S2_RKT0_.exit.i.loopexit.split.loop.exit16, %._crit_edge._crit_edge52.i.i.i.i, %._crit_edge._crit_edge.i.i.i.i, %34
  %.028.i.i.i.i = phi ptr [ %.029.lcssa.i.i.i.i, %34 ], [ %.1.i.i.i.i, %._crit_edge._crit_edge.i.i.i.i ], [ %.2.i.i.i.i, %._crit_edge._crit_edge52.i.i.i.i ], [ %45, %_ZSt4findIPKttET_S2_S2_RKT0_.exit.i.loopexit.split.loop.exit ], [ %46, %_ZSt4findIPKttET_S2_S2_RKT0_.exit.i.loopexit.split.loop.exit14 ], [ %47, %_ZSt4findIPKttET_S2_S2_RKT0_.exit.i.loopexit.split.loop.exit16 ], [ %.02946.i.i.i.i, %14 ]
  %.not11.i = icmp eq ptr %.028.i.i.i.i, %9
  br i1 %.not11.i, label %_ZN4base8internal5findTINSt7__cxx1112basic_stringItNS_20string16_char_traitsESaItEEEEEmRKNS_16BasicStringPieceIT_EENS8_10value_typeEm.exit, label %48

48:                                               ; preds = %_ZSt4findIPKttET_S2_S2_RKT0_.exit.i
  %49 = ptrtoint ptr %.028.i.i.i.i to i64
  %50 = ptrtoint ptr %7 to i64
  %51 = sub i64 %49, %50
  %52 = ashr exact i64 %51, 1
  br label %_ZN4base8internal5findTINSt7__cxx1112basic_stringItNS_20string16_char_traitsESaItEEEEEmRKNS_16BasicStringPieceIT_EENS8_10value_typeEm.exit

_ZN4base8internal5findTINSt7__cxx1112basic_stringItNS_20string16_char_traitsESaItEEEEEmRKNS_16BasicStringPieceIT_EENS8_10value_typeEm.exit: ; preds = %3, %._crit_edge.i.i.i.i, %._crit_edge._crit_edge52.i.i.i.i, %_ZSt4findIPKttET_S2_S2_RKT0_.exit.i, %48
  %.0.i = phi i64 [ -1, %3 ], [ %52, %48 ], [ -1, %_ZSt4findIPKttET_S2_S2_RKT0_.exit.i ], [ -1, %._crit_edge.i.i.i.i ], [ -1, %._crit_edge._crit_edge52.i.i.i.i ]
  ret i64 %.0.i
}